; Function Attrs: nounwind uwtable
define i16 @f16_recip7(i16 %0) local_unnamed_addr #0 {
  %2 = tail call i64 @f16_classify(i16 %0) #3
  %3 = trunc i64 %2 to i32
  switch i32 %3, label %18 [
    i32 1, label %69
    i32 128, label %4
    i32 8, label %5
    i32 16, label %9
    i32 256, label %13
    i32 512, label %17
    i32 4, label %.preheader.i
    i32 32, label %.preheader.i
  ]

4:                                                ; preds = %1
  br label %69

5:                                                ; preds = %1
  %6 = tail call align 1 ptr @llvm.threadlocal.address.p0(ptr align 1 @softfloat_exceptionFlags)
  %7 = load i8, ptr %6, align 1, !tbaa !3
  %8 = or i8 %7, 8
  store i8 %8, ptr %6, align 1, !tbaa !3
  br label %69

9:                                                ; preds = %1
  %10 = tail call align 1 ptr @llvm.threadlocal.address.p0(ptr align 1 @softfloat_exceptionFlags)
  %11 = load i8, ptr %10, align 1, !tbaa !3
  %12 = or i8 %11, 8
  store i8 %12, ptr %10, align 1, !tbaa !3
  br label %69

13:                                               ; preds = %1
  %14 = tail call align 1 ptr @llvm.threadlocal.address.p0(ptr align 1 @softfloat_exceptionFlags)
  %15 = load i8, ptr %14, align 1, !tbaa !3
  %16 = or i8 %15, 16
  store i8 %16, ptr %14, align 1, !tbaa !3
  br label %17

17:                                               ; preds = %13, %1
  br label %69

18:                                               ; preds = %1
  %19 = zext i16 %0 to i64
  %20 = lshr i64 %19, 10
  %21 = and i64 %20, 31
  %22 = and i64 %19, 1023
  br label %45

.preheader.i:                                     ; preds = %1, %1
  %23 = zext i16 %0 to i64
  %24 = tail call align 1 ptr @llvm.threadlocal.address.p0(ptr align 1 @softfloat_roundingMode)
  %25 = load i8, ptr %24, align 1, !tbaa !3
  %26 = lshr i64 %23, 10
  %27 = and i64 %26, 31
  %28 = and i64 %23, 1023
  %29 = and i16 %0, -32768
  %30 = and i64 %23, 512
  %31 = icmp eq i64 %30, 0
  br i1 %31, label %.lr.ph.i, label %._crit_edge.i

.lr.ph.i:                                         ; preds = %.preheader.i, %.lr.ph.i
  %.169.i = phi i64 [ %32, %.lr.ph.i ], [ %27, %.preheader.i ]
  %.16268.i = phi i64 [ %33, %.lr.ph.i ], [ %28, %.preheader.i ]
  %32 = add i64 %.169.i, -1
  %33 = shl i64 %.16268.i, 1
  %34 = and i64 %.16268.i, 256
  %35 = icmp eq i64 %34, 0
  br i1 %35, label %.lr.ph.i, label %._crit_edge.i, !llvm.loop !8

._crit_edge.i:                                    ; preds = %.lr.ph.i, %.preheader.i
  %.162.lcssa.i = phi i64 [ %28, %.preheader.i ], [ %33, %.lr.ph.i ]
  %.1.lcssa.i = phi i64 [ %27, %.preheader.i ], [ %32, %.lr.ph.i ]
  %36 = shl i64 %.162.lcssa.i, 1
  %37 = and i64 %36, 1022
  %38 = add i64 %.1.lcssa.i, -1
  %or.cond.i = icmp ult i64 %38, -2
  br i1 %or.cond.i, label %39, label %45

39:                                               ; preds = %._crit_edge.i
  %40 = icmp eq i8 %25, 1
  br i1 %40, label %64, label %41

41:                                               ; preds = %39
  %42 = icmp ne i8 %25, 2
  %43 = icmp slt i16 %0, 0
  %or.cond3.i = select i1 %42, i1 true, i1 %43
  %or.cond3.not.i = xor i1 %or.cond3.i, true
  %44 = icmp eq i8 %25, 3
  %or.cond5.i = select i1 %44, i1 %43, i1 false
  %or.cond66.i = select i1 %or.cond3.not.i, i1 true, i1 %or.cond5.i
  %spec.select = select i1 %or.cond66.i, i16 31743, i16 31744
  br label %64

45:                                               ; preds = %18, %._crit_edge.i
  %46 = phi i64 [ %23, %._crit_edge.i ], [ %19, %18 ]
  %.061.i = phi i64 [ %37, %._crit_edge.i ], [ %22, %18 ]
  %.060.i = phi i64 [ %.1.lcssa.i, %._crit_edge.i ], [ %21, %18 ]
  %47 = lshr i64 %.061.i, 3
  %48 = getelementptr inbounds nuw [128 x i8], ptr @recip7.table, i64 0, i64 %47
  %49 = load i8, ptr %48, align 1, !tbaa !3
  %50 = zext i8 %49 to i64
  %51 = shl nuw nsw i64 %50, 3
  %52 = sub nsw i64 29, %.060.i
  %53 = add nsw i64 %.060.i, -29
  %or.cond7.i = icmp ult i64 %53, 2
  br i1 %or.cond7.i, label %54, label %recip7.exit

54:                                               ; preds = %45
  %55 = icmp eq i64 %.060.i, 30
  %56 = shl nuw nsw i64 %50, 2
  %57 = or i64 %56, 512
  %58 = zext i1 %55 to i64
  %spec.select.i = lshr exact i64 %57, %58
  %spec.select67.i = select i1 %55, i64 0, i64 %52
  br label %recip7.exit

recip7.exit:                                      ; preds = %45, %54
  %.058.i = phi i64 [ %51, %45 ], [ %spec.select.i, %54 ]
  %.0.i = phi i64 [ %52, %45 ], [ %spec.select67.i, %54 ]
  %59 = and i64 %46, 32768
  %60 = shl nsw i64 %.0.i, 10
  %61 = or i64 %.058.i, %59
  %62 = or i64 %61, %60
  %63 = trunc i64 %62 to i16
  br label %69

64:                                               ; preds = %41, %39
  %.sink = phi i16 [ 31743, %39 ], [ %spec.select, %41 ]
  %65 = or disjoint i16 %29, %.sink
  %66 = tail call align 1 ptr @llvm.threadlocal.address.p0(ptr align 1 @softfloat_exceptionFlags)
  %67 = load i8, ptr %66, align 1, !tbaa !3
  %68 = or i8 %67, 5
  store i8 %68, ptr %66, align 1, !tbaa !3
  br label %69

69:                                               ; preds = %recip7.exit, %1, %64, %17, %9, %5, %4
  %.sroa.0.0 = phi i16 [ %65, %64 ], [ %63, %recip7.exit ], [ 32256, %17 ], [ 31744, %9 ], [ -1024, %5 ], [ 0, %4 ], [ -32768, %1 ]
  ret i16 %.sroa.0.0
}